target datalayout = "e-m:e-p270:32:32-p271:32:32-p272:64:64-i64:64-i128:128-f80:128-n8:16:32:64-S128"
target triple = "x86_64-pc-linux-gnu"

@glad_glClearColor = global ptr null, align 8

; Function Attrs: nounwind uwtable
define void @rlClearColor(i8 noundef zeroext %0, i8 noundef zeroext %1, i8 noundef zeroext %2, i8 noundef zeroext %3) #0 {
  %5 = alloca i8, align 1
  %6 = alloca i8, align 1
  %7 = alloca i8, align 1
  %8 = alloca i8, align 1
  %9 = alloca float, align 4
  %10 = alloca float, align 4
  %11 = alloca float, align 4
  %12 = alloca float, align 4
  store i8 %0, ptr %5, align 1
  store i8 %1, ptr %6, align 1
  store i8 %2, ptr %7, align 1
  store i8 %3, ptr %8, align 1
  call void @llvm.lifetime.start.p0(i64 4, ptr %9) #16
  %13 = load i8, ptr %5, align 1
  %14 = uitofp i8 %13 to float
  %15 = fdiv float %14, 2.550000e+02
  store float %15, ptr %9, align 4
  call void @llvm.lifetime.start.p0(i64 4, ptr %10) #16
  %16 = load i8, ptr %6, align 1
  %17 = uitofp i8 %16 to float
  %18 = fdiv float %17, 2.550000e+02
  store float %18, ptr %10, align 4
  call void @llvm.lifetime.start.p0(i64 4, ptr %11) #16
  %19 = load i8, ptr %7, align 1
  %20 = uitofp i8 %19 to float
  %21 = fdiv float %20, 2.550000e+02
  store float %21, ptr %11, align 4
  call void @llvm.lifetime.start.p0(i64 4, ptr %12) #16
  %22 = load i8, ptr %8, align 1
  %23 = uitofp i8 %22 to float
  %24 = fdiv float %23, 2.550000e+02
  store float %24, ptr %12, align 4
  %25 = load ptr, ptr @glad_glClearColor, align 8
  %26 = load float, ptr %9, align 4
  %27 = load float, ptr %10, align 4
  %28 = load float, ptr %11, align 4
  %29 = load float, ptr %12, align 4
  call void %25(float noundef %26, float noundef %27, float noundef %28, float noundef %29)
  call void @llvm.lifetime.end.p0(i64 4, ptr %12) #16
  call void @llvm.lifetime.end.p0(i64 4, ptr %11) #16
  call void @llvm.lifetime.end.p0(i64 4, ptr %10) #16
  call void @llvm.lifetime.end.p0(i64 4, ptr %9) #16
  ret void
}