; Function Attrs: nounwind uwtable
define void @rlClearColor(i8 noundef zeroext %0, i8 noundef zeroext %1, i8 noundef zeroext %2, i8 noundef zeroext %3) local_unnamed_addr #0 {
  %5 = uitofp i8 %0 to float
  %6 = fdiv float %5, 2.550000e+02
  %7 = uitofp i8 %1 to float
  %8 = fdiv float %7, 2.550000e+02
  %9 = uitofp i8 %2 to float
  %10 = fdiv float %9, 2.550000e+02
  %11 = uitofp i8 %3 to float
  %12 = fdiv float %11, 2.550000e+02
  %13 = load ptr, ptr @glad_glClearColor, align 8
  tail call void %13(float noundef %6, float noundef %8, float noundef %10, float noundef %12) #56
  ret void
}